; Function Attrs: mustprogress nounwind uwtable
define internal void @_ZN4node10cares_wrap12_GLOBAL__N_118ares_poll_close_cbEP9uv_poll_s(ptr noundef %watcher) #3 {
entry:
  %0 = ptrtoint ptr %watcher to i64
  %sub.i.i = add i64 %0, -24
  %cmp.not.i = icmp eq i64 %sub.i.i, 0
  br i1 %cmp.not.i, label %_ZNSt10unique_ptrIN4node10cares_wrap12NodeAresTaskESt14default_deleteIS2_EED2Ev.exit, label %_ZNKSt14default_deleteIN4node10cares_wrap12NodeAresTaskEEclEPS2_.exit.i

_ZNKSt14default_deleteIN4node10cares_wrap12NodeAresTaskEEclEPS2_.exit.i: ; preds = %entry
  %1 = inttoptr i64 %sub.i.i to ptr
  tail call void @_ZdlPv(ptr noundef nonnull %1) #22
  br label %_ZNSt10unique_ptrIN4node10cares_wrap12NodeAresTaskESt14default_deleteIS2_EED2Ev.exit

_ZNSt10unique_ptrIN4node10cares_wrap12NodeAresTaskESt14default_deleteIS2_EED2Ev.exit: ; preds = %entry, %_ZNKSt14default_deleteIN4node10cares_wrap12NodeAresTaskEEclEPS2_.exit.i
  ret void
}